; Function Attrs: mustprogress uwtable
define dso_local void @_ZNK4base12SampleVector8IteratorEv(ptr noalias nocapture writeonly sret(%"class.std::unique_ptr") align 8 %agg.result, ptr nocapture noundef nonnull readonly align 8 dereferenceable(88) %this) unnamed_addr #0 align 2 personality ptr @__gxx_personality_v0 {
entry:
  %call = tail call noalias noundef nonnull dereferenceable(40) ptr @_Znwm(i64 noundef 40) #14
  %counts_ = getelementptr inbounds i8, ptr %this, i64 64
  %0 = load ptr, ptr %counts_, align 8
  %counts_size_ = getelementptr inbounds i8, ptr %this, i64 72
  %1 = load i64, ptr %counts_size_, align 8
  %bucket_ranges_ = getelementptr inbounds i8, ptr %this, i64 80
  %2 = load ptr, ptr %bucket_ranges_, align 8
  invoke void @_ZN4base20SampleVectorIteratorC2EPKimPKNS_12BucketRangesE(ptr noundef nonnull align 8 dereferenceable(40) %call, ptr noundef %0, i64 noundef %1, ptr noundef %2)
          to label %invoke.cont unwind label %lpad

invoke.cont:                                      ; preds = %entry
  store ptr %call, ptr %agg.result, align 8
  ret void

lpad:                                             ; preds = %entry
  %3 = landingpad { ptr, i32 }
          cleanup
  tail call void @_ZdlPv(ptr noundef nonnull %call) #15
  resume { ptr, i32 } %3
}